target datalayout = "e-m:e-p270:32:32-p271:32:32-p272:64:64-i64:64-i128:128-f80:128-n8:16:32:64-S128"
target triple = "x86_64-pc-linux-gnu"

%"class.net::QuicUnackedPacketMap" = type { i64, i64, %"class.std::deque", i64, i64, i64 }
%"class.std::deque" = type { %"class.std::_Deque_base" }
%"class.std::_Deque_base" = type { %"struct.std::_Deque_base<net::TransmissionInfo, std::allocator<net::TransmissionInfo>>::_Deque_impl" }
%"struct.std::_Deque_base<net::TransmissionInfo, std::allocator<net::TransmissionInfo>>::_Deque_impl" = type { %"struct.std::_Deque_base<net::TransmissionInfo, std::allocator<net::TransmissionInfo>>::_Deque_impl_data" }
%"struct.std::_Deque_base<net::TransmissionInfo, std::allocator<net::TransmissionInfo>>::_Deque_impl_data" = type { ptr, i64, %"struct.std::_Deque_iterator", %"struct.std::_Deque_iterator" }
%"struct.std::_Deque_iterator" = type { ptr, ptr, ptr, ptr }
%"struct.net::TransmissionInfo" = type { %"class.std::vector", i8, i8, i16, %"class.net::QuicTime", i8, i8, i8, i8, i16, i64, %"class.std::__cxx11::list" }
%"class.std::vector" = type { %"struct.std::_Vector_base" }
%"struct.std::_Vector_base" = type { %"struct.std::_Vector_base<net::QuicFrame, std::allocator<net::QuicFrame>>::_Vector_impl" }
%"struct.std::_Vector_base<net::QuicFrame, std::allocator<net::QuicFrame>>::_Vector_impl" = type { %"struct.std::_Vector_base<net::QuicFrame, std::allocator<net::QuicFrame>>::_Vector_impl_data" }
%"struct.std::_Vector_base<net::QuicFrame, std::allocator<net::QuicFrame>>::_Vector_impl_data" = type { ptr, ptr, ptr }
%"class.net::QuicTime" = type { i64 }
%"class.std::__cxx11::list" = type { %"class.std::__cxx11::_List_base" }
%"class.std::__cxx11::_List_base" = type { %"struct.std::__cxx11::_List_base<net::AckListenerWrapper, std::allocator<net::AckListenerWrapper>>::_List_impl" }
%"struct.std::__cxx11::_List_base<net::AckListenerWrapper, std::allocator<net::AckListenerWrapper>>::_List_impl" = type { %"struct.std::__detail::_List_node_header" }
%"struct.std::__detail::_List_node_header" = type { %"struct.std::__detail::_List_node_base", i64 }
%"struct.std::__detail::_List_node_base" = type { ptr, ptr }

; Function Attrs: inlinehint mustprogress nounwind uwtable
define linkonce_odr noundef i64 @_ZSt16__deque_buf_sizem(i64 noundef %0) #8 comdat {
  %2 = alloca i64, align 8
  store i64 %0, ptr %2, align 8, !tbaa !24
  %3 = load i64, ptr %2, align 8, !tbaa !24
  %4 = icmp ult i64 %3, 512
  br i1 %4, label %5, label %8

5:                                                ; preds = %1
  %6 = load i64, ptr %2, align 8, !tbaa !24
  %7 = udiv i64 512, %6
  br label %9

8:                                                ; preds = %1
  br label %9

9:                                                ; preds = %8, %5
  %10 = phi i64 [ %7, %5 ], [ 1, %8 ]
  ret i64 %10
}

; Function Attrs: mustprogress nounwind uwtable
define linkonce_odr void @_ZNSt15_Deque_iteratorIN3net16TransmissionInfoERS1_PS1_E11_M_set_nodeEPS3_(ptr noundef nonnull align 8 dereferenceable(32) %0, ptr noundef %1) #1 comdat align 2 {
  %3 = alloca ptr, align 8
  %4 = alloca ptr, align 8
  store ptr %0, ptr %3, align 8, !tbaa !27
  store ptr %1, ptr %4, align 8, !tbaa !139
  %5 = load ptr, ptr %3, align 8
  %6 = load ptr, ptr %4, align 8, !tbaa !139
  %7 = getelementptr inbounds nuw %"struct.std::_Deque_iterator", ptr %5, i32 0, i32 3
  store ptr %6, ptr %7, align 8, !tbaa !31
  %8 = load ptr, ptr %4, align 8, !tbaa !139
  %9 = load ptr, ptr %8, align 8, !tbaa !83
  %10 = getelementptr inbounds nuw %"struct.std::_Deque_iterator", ptr %5, i32 0, i32 1
  store ptr %9, ptr %10, align 8, !tbaa !32
  %11 = getelementptr inbounds nuw %"struct.std::_Deque_iterator", ptr %5, i32 0, i32 1
  %12 = load ptr, ptr %11, align 8, !tbaa !32
  %13 = call noundef i64 @_ZNSt15_Deque_iteratorIN3net16TransmissionInfoERS1_PS1_E14_S_buffer_sizeEv() #13
  %14 = getelementptr inbounds %"struct.net::TransmissionInfo", ptr %12, i64 %13
  %15 = getelementptr inbounds nuw %"struct.std::_Deque_iterator", ptr %5, i32 0, i32 2
  store ptr %14, ptr %15, align 8, !tbaa !30
  ret void
}

; Function Attrs: mustprogress nounwind uwtable
define linkonce_odr noundef i64 @_ZNSt15_Deque_iteratorIN3net16TransmissionInfoERS1_PS1_E14_S_buffer_sizeEv() #1 comdat align 2 {
  %1 = call noundef i64 @_ZSt16__deque_buf_sizem(i64 noundef 80)
  ret i64 %1
}

; Function Attrs: mustprogress nounwind uwtable
define linkonce_odr noundef nonnull align 8 dereferenceable(32) ptr @_ZNSt15_Deque_iteratorIN3net16TransmissionInfoERS1_PS1_EpLEl(ptr noundef nonnull align 8 dereferenceable(32) %0, i64 noundef %1) #1 comdat align 2 {
  %3 = alloca ptr, align 8
  %4 = alloca i64, align 8
  %5 = alloca i64, align 8
  %6 = alloca i64, align 8
  store ptr %0, ptr %3, align 8, !tbaa !27
  store i64 %1, ptr %4, align 8, !tbaa !24
  %7 = load ptr, ptr %3, align 8
  call void @llvm.lifetime.start.p0(i64 8, ptr %5) #13
  %8 = load i64, ptr %4, align 8, !tbaa !24
  %9 = getelementptr inbounds nuw %"struct.std::_Deque_iterator", ptr %7, i32 0, i32 0
  %10 = load ptr, ptr %9, align 8, !tbaa !29
  %11 = getelementptr inbounds nuw %"struct.std::_Deque_iterator", ptr %7, i32 0, i32 1
  %12 = load ptr, ptr %11, align 8, !tbaa !32
  %13 = ptrtoint ptr %10 to i64
  %14 = ptrtoint ptr %12 to i64
  %15 = sub i64 %13, %14
  %16 = sdiv exact i64 %15, 80
  %17 = add nsw i64 %8, %16
  store i64 %17, ptr %5, align 8, !tbaa !24
  %18 = load i64, ptr %5, align 8, !tbaa !24
  %19 = icmp sge i64 %18, 0
  br i1 %19, label %20, label %29

20:                                               ; preds = %2
  %21 = load i64, ptr %5, align 8, !tbaa !24
  %22 = call noundef i64 @_ZNSt15_Deque_iteratorIN3net16TransmissionInfoERS1_PS1_E14_S_buffer_sizeEv() #13
  %23 = icmp slt i64 %21, %22
  br i1 %23, label %24, label %29

24:                                               ; preds = %20
  %25 = load i64, ptr %4, align 8, !tbaa !24
  %26 = getelementptr inbounds nuw %"struct.std::_Deque_iterator", ptr %7, i32 0, i32 0
  %27 = load ptr, ptr %26, align 8, !tbaa !29
  %28 = getelementptr inbounds %"struct.net::TransmissionInfo", ptr %27, i64 %25
  store ptr %28, ptr %26, align 8, !tbaa !29
  br label %59

29:                                               ; preds = %20, %2
  call void @llvm.lifetime.start.p0(i64 8, ptr %6) #13
  %30 = load i64, ptr %5, align 8, !tbaa !24
  %31 = icmp sgt i64 %30, 0
  br i1 %31, label %32, label %36

32:                                               ; preds = %29
  %33 = load i64, ptr %5, align 8, !tbaa !24
  %34 = call noundef i64 @_ZNSt15_Deque_iteratorIN3net16TransmissionInfoERS1_PS1_E14_S_buffer_sizeEv() #13
  %35 = sdiv i64 %33, %34
  br label %44

36:                                               ; preds = %29
  %37 = load i64, ptr %5, align 8, !tbaa !24
  %38 = sub nsw i64 0, %37
  %39 = sub nsw i64 %38, 1
  %40 = call noundef i64 @_ZNSt15_Deque_iteratorIN3net16TransmissionInfoERS1_PS1_E14_S_buffer_sizeEv() #13
  %41 = udiv i64 %39, %40
  %42 = sub nsw i64 0, %41
  %43 = sub nsw i64 %42, 1
  br label %44

44:                                               ; preds = %36, %32
  %45 = phi i64 [ %35, %32 ], [ %43, %36 ]
  store i64 %45, ptr %6, align 8, !tbaa !24
  %46 = getelementptr inbounds nuw %"struct.std::_Deque_iterator", ptr %7, i32 0, i32 3
  %47 = load ptr, ptr %46, align 8, !tbaa !31
  %48 = load i64, ptr %6, align 8, !tbaa !24
  %49 = getelementptr inbounds ptr, ptr %47, i64 %48
  call void @_ZNSt15_Deque_iteratorIN3net16TransmissionInfoERS1_PS1_E11_M_set_nodeEPS3_(ptr noundef nonnull align 8 dereferenceable(32) %7, ptr noundef %49) #13
  %50 = getelementptr inbounds nuw %"struct.std::_Deque_iterator", ptr %7, i32 0, i32 1
  %51 = load ptr, ptr %50, align 8, !tbaa !32
  %52 = load i64, ptr %5, align 8, !tbaa !24
  %53 = load i64, ptr %6, align 8, !tbaa !24
  %54 = call noundef i64 @_ZNSt15_Deque_iteratorIN3net16TransmissionInfoERS1_PS1_E14_S_buffer_sizeEv() #13
  %55 = mul nsw i64 %53, %54
  %56 = sub nsw i64 %52, %55
  %57 = getelementptr inbounds %"struct.net::TransmissionInfo", ptr %51, i64 %56
  %58 = getelementptr inbounds nuw %"struct.std::_Deque_iterator", ptr %7, i32 0, i32 0
  store ptr %57, ptr %58, align 8, !tbaa !29
  call void @llvm.lifetime.end.p0(i64 8, ptr %6) #13
  br label %59

59:                                               ; preds = %44, %24
  call void @llvm.lifetime.end.p0(i64 8, ptr %5) #13
  ret ptr %7
}

; Function Attrs: mustprogress nounwind uwtable
define linkonce_odr void @_ZNSt15_Deque_iteratorIN3net16TransmissionInfoERS1_PS1_EC2ERKS4_(ptr noundef nonnull align 8 dereferenceable(32) %0, ptr noundef nonnull align 8 dereferenceable(32) %1) unnamed_addr #1 comdat align 2 {
  %3 = alloca ptr, align 8
  %4 = alloca ptr, align 8
  store ptr %0, ptr %3, align 8, !tbaa !27
  store ptr %1, ptr %4, align 8, !tbaa !27
  %5 = load ptr, ptr %3, align 8
  %6 = getelementptr inbounds nuw %"struct.std::_Deque_iterator", ptr %5, i32 0, i32 0
  %7 = load ptr, ptr %4, align 8, !tbaa !27
  %8 = getelementptr inbounds nuw %"struct.std::_Deque_iterator", ptr %7, i32 0, i32 0
  %9 = load ptr, ptr %8, align 8, !tbaa !29
  store ptr %9, ptr %6, align 8, !tbaa !29
  %10 = getelementptr inbounds nuw %"struct.std::_Deque_iterator", ptr %5, i32 0, i32 1
  %11 = load ptr, ptr %4, align 8, !tbaa !27
  %12 = getelementptr inbounds nuw %"struct.std::_Deque_iterator", ptr %11, i32 0, i32 1
  %13 = load ptr, ptr %12, align 8, !tbaa !32
  store ptr %13, ptr %10, align 8, !tbaa !32
  %14 = getelementptr inbounds nuw %"struct.std::_Deque_iterator", ptr %5, i32 0, i32 2
  %15 = load ptr, ptr %4, align 8, !tbaa !27
  %16 = getelementptr inbounds nuw %"struct.std::_Deque_iterator", ptr %15, i32 0, i32 2
  %17 = load ptr, ptr %16, align 8, !tbaa !30
  store ptr %17, ptr %14, align 8, !tbaa !30
  %18 = getelementptr inbounds nuw %"struct.std::_Deque_iterator", ptr %5, i32 0, i32 3
  %19 = load ptr, ptr %4, align 8, !tbaa !27
  %20 = getelementptr inbounds nuw %"struct.std::_Deque_iterator", ptr %19, i32 0, i32 3
  %21 = load ptr, ptr %20, align 8, !tbaa !31
  store ptr %21, ptr %18, align 8, !tbaa !31
  ret void
}

; Function Attrs: mustprogress nounwind uwtable
define linkonce_odr noundef nonnull align 8 dereferenceable(80) ptr @_ZNKSt15_Deque_iteratorIN3net16TransmissionInfoERS1_PS1_EdeEv(ptr noundef nonnull align 8 dereferenceable(32) %0) #1 comdat align 2 {
  %2 = alloca ptr, align 8
  store ptr %0, ptr %2, align 8, !tbaa !27
  %3 = load ptr, ptr %2, align 8
  %4 = getelementptr inbounds nuw %"struct.std::_Deque_iterator", ptr %3, i32 0, i32 0
  %5 = load ptr, ptr %4, align 8, !tbaa !29
  ret ptr %5
}

; Function Attrs: mustprogress nounwind uwtable
define linkonce_odr void @_ZStplRKSt15_Deque_iteratorIN3net16TransmissionInfoERS1_PS1_El(ptr dead_on_unwind noalias writable sret(%"struct.std::_Deque_iterator") align 8 %0, ptr noundef nonnull align 8 dereferenceable(32) %1, i64 noundef %2) #1 comdat {
  %4 = alloca ptr, align 8
  %5 = alloca ptr, align 8
  %6 = alloca i64, align 8
  store ptr %0, ptr %4, align 8
  store ptr %1, ptr %5, align 8, !tbaa !27
  store i64 %2, ptr %6, align 8, !tbaa !24
  %7 = load ptr, ptr %5, align 8, !tbaa !27
  call void @_ZNSt15_Deque_iteratorIN3net16TransmissionInfoERS1_PS1_EC2ERKS4_(ptr noundef nonnull align 8 dereferenceable(32) %0, ptr noundef nonnull align 8 dereferenceable(32) %7) #13
  %8 = load i64, ptr %6, align 8, !tbaa !24
  %9 = call noundef nonnull align 8 dereferenceable(32) ptr @_ZNSt15_Deque_iteratorIN3net16TransmissionInfoERS1_PS1_EpLEl(ptr noundef nonnull align 8 dereferenceable(32) %0, i64 noundef %8) #13
  ret void
}

; Function Attrs: mustprogress nounwind uwtable
define linkonce_odr noundef nonnull align 8 dereferenceable(80) ptr @_ZNKSt15_Deque_iteratorIN3net16TransmissionInfoERS1_PS1_EixEl(ptr noundef nonnull align 8 dereferenceable(32) %0, i64 noundef %1) #1 comdat align 2 {
  %3 = alloca ptr, align 8
  %4 = alloca i64, align 8
  %5 = alloca %"struct.std::_Deque_iterator", align 8
  store ptr %0, ptr %3, align 8, !tbaa !27
  store i64 %1, ptr %4, align 8, !tbaa !24
  %6 = load ptr, ptr %3, align 8
  call void @llvm.lifetime.start.p0(i64 32, ptr %5) #13
  %7 = load i64, ptr %4, align 8, !tbaa !24
  call void @_ZStplRKSt15_Deque_iteratorIN3net16TransmissionInfoERS1_PS1_El(ptr dead_on_unwind writable sret(%"struct.std::_Deque_iterator") align 8 %5, ptr noundef nonnull align 8 dereferenceable(32) %6, i64 noundef %7) #13
  %8 = call noundef nonnull align 8 dereferenceable(80) ptr @_ZNKSt15_Deque_iteratorIN3net16TransmissionInfoERS1_PS1_EdeEv(ptr noundef nonnull align 8 dereferenceable(32) %5) #13
  call void @llvm.lifetime.end.p0(i64 32, ptr %5) #13
  ret ptr %8
}

; Function Attrs: mustprogress nounwind uwtable
define linkonce_odr noundef nonnull align 8 dereferenceable(80) ptr @_ZNKSt5dequeIN3net16TransmissionInfoESaIS1_EEixEm(ptr noundef nonnull align 8 dereferenceable(80) %0, i64 noundef %1) #1 comdat align 2 {
  %3 = alloca ptr, align 8
  %4 = alloca i64, align 8
  store ptr %0, ptr %3, align 8, !tbaa !22
  store i64 %1, ptr %4, align 8, !tbaa !24
  %5 = load ptr, ptr %3, align 8
  %6 = getelementptr inbounds nuw %"class.std::_Deque_base", ptr %5, i32 0, i32 0
  %7 = getelementptr inbounds nuw %"struct.std::_Deque_base<net::TransmissionInfo, std::allocator<net::TransmissionInfo>>::_Deque_impl_data", ptr %6, i32 0, i32 2
  %8 = load i64, ptr %4, align 8, !tbaa !24
  %9 = call noundef nonnull align 8 dereferenceable(80) ptr @_ZNKSt15_Deque_iteratorIN3net16TransmissionInfoERS1_PS1_EixEl(ptr noundef nonnull align 8 dereferenceable(32) %7, i64 noundef %8) #13
  ret ptr %9
}

; Function Attrs: mustprogress nounwind uwtable
define noundef nonnull align 8 dereferenceable(80) ptr @_ZNK3net20QuicUnackedPacketMap19GetTransmissionInfoEm(ptr noundef nonnull align 8 dereferenceable(120) %0, i64 noundef %1) #1 align 2 {
  %3 = alloca ptr, align 8
  %4 = alloca i64, align 8
  store ptr %0, ptr %3, align 8, !tbaa !3
  store i64 %1, ptr %4, align 8, !tbaa !24
  %5 = load ptr, ptr %3, align 8
  %6 = getelementptr inbounds nuw %"class.net::QuicUnackedPacketMap", ptr %5, i32 0, i32 2
  %7 = load i64, ptr %4, align 8, !tbaa !24
  %8 = getelementptr inbounds nuw %"class.net::QuicUnackedPacketMap", ptr %5, i32 0, i32 3
  %9 = load i64, ptr %8, align 8, !tbaa !19
  %10 = sub i64 %7, %9
  %11 = call noundef nonnull align 8 dereferenceable(80) ptr @_ZNKSt5dequeIN3net16TransmissionInfoESaIS1_EEixEm(ptr noundef nonnull align 8 dereferenceable(80) %6, i64 noundef %10) #13
  ret ptr %11
}